Certificate:
    Data:
        Version: 3 (0x2)
        Serial Number: 4100 (0x1004)
    Signature Algorithm: sha1WithRSAEncryption
        Issuer: C=US, ST=California, L=Palo Alto, O=MongoDB, OU=QA, CN=TEST-CA
        Validity
            Not Before: Oct  1 18:51:45 2014 GMT
            Not After : Oct  1 18:51:55 2014 GMT
        Subject: C=US, ST=California, O=MongoDB, OU=QAClient, CN=TEST-CLIENT-Expired
        Subject Public Key Info:
            Public Key Algorithm: rsaEncryption
                Public-Key: (1024 bit)
                Modulus:
                    00:c1:57:10:da:99:4b:d0:79:ad:d1:3a:68:da:5c:
                    ad:09:a5:e8:07:e3:b1:f9:45:f4:24:50:3b:75:ff:
                    61:a7:1c:76:0b:70:bd:a9:98:4c:06:93:8a:95:8d:
                    b4:e5:09:dc:8e:3e:14:50:1d:eb:15:1e:5b:42:7c:
                    00:df:22:85:c7:5d:a2:4c:f2:2a:61:fd:8d:d0:09:
                    91:19:8b:db:de:81:05:14:09:66:7f:52:2f:97:f5:
                    3d:48:5f:34:5a:a6:ef:51:60:2a:18:43:58:c2:40:
                    4b:c8:79:9c:1c:e6:50:12:3b:15:05:4d:5b:88:17:
                    13:d8:73:f7:98:de:0e:65:35
                Exponent: 65537 (0x10001)
        X509v3 extensions:
            X509v3 Basic Constraints: 
                CA:FALSE
            Netscape Comment: 
                OpenSSL Generated Certificate
            X509v3 Subject Key Identifier: 
                5A:61:D6:3A:D7:F5:A2:B9:D4:C2:04:7A:40:0E:EA:33:8B:88:29:BA
            X509v3 Authority Key Identifier: 
                keyid:A4:2A:13:7D:63:F0:E3:06:CA:5E:F0:73:7A:1B:9A:48:4F:1F:8C:F0

    Signature Algorithm: sha1WithRSAEncryption
         c2:9c:d6:1c:03:97:0e:50:19:6a:96:06:29:92:a1:87:fe:9f:
         26:82:b8:d9:26:be:78:41:f9:0e:66:7b:fa:25:26:b6:34:c9:
         82:77:e6:6f:a5:21:cc:c4:cf:c6:8b:f1:5f:d2:c4:e5:27:b3:
         b9:32:05:f0:91:e6:91:10:49:24:44:fd:ce:29:69:87:0a:d3:
         7f:e5:20:22:14:57:34:74:ea:8a:29:df:ad:0f:cd:87:f2:cf:
         a3:fb:8f:3d:cf:d2:6a:00:59:64:9a:6f:d4:3a:81:5c:00:05:
         e3:8e:ab:d3:28:88:42:94:ba:94:1e:d6:45:34:a5:08:16:e3:
         98:87
-----BEGIN CERTIFICATE-----
MIICvjCCAiegAwIBAgICEAQwDQYJKoZIhvcNAQEFBQAwZzELMAkGA1UEBhMCVVMx
EzARBgNVBAgMCkNhbGlmb3JuaWExEjAQBgNVBAcMCVBhbG8gQWx0bzEQMA4GA1UE
CgwHTW9uZ29EQjELMAkGA1UECwwCUUExEDAOBgNVBAMMB1RFU1QtQ0EwHhcNMTQx
MDAxMTg1MTQ1WhcNMTQxMDAxMTg1MTU1WjBlMQswCQYDVQQGEwJVUzETMBEGA1UE
CAwKQ2FsaWZvcm5pYTEQMA4GA1UECgwHTW9uZ29EQjERMA8GA1UECwwIUUFDbGll
bnQxHDAaBgNVBAMME1RFU1QtQ0xJRU5ULUV4cGlyZWQwgZ8wDQYJKoZIhvcNAQEB
BQADgY0AMIGJAoGBAMFXENqZS9B5rdE6aNpcrQml6AfjsflF9CRQO3X/Yaccdgtw
vamYTAaTipWNtOUJ3I4+FFAd6xUeW0J8AN8ihcddokzyKmH9jdAJkRmL296BBRQJ
Zn9SL5f1PUhfNFqm71FgKhhDWMJAS8h5nBzmUBI7FQVNW4gXE9hz95jeDmU1AgMB
AAGjezB5MAkGA1UdEwQCMAAwLAYJYIZIAYb4QgENBB8WHU9wZW5TU0wgR2VuZXJh
dGVkIENlcnRpZmljYXRlMB0GA1UdDgQWBBRaYdY61/WiudTCBHpADuozi4gpujAf
BgNVHSMEGDAWgBSkKhN9Y/DjBspe8HN6G5pITx+M8DANBgkqhkiG9w0BAQUFAAOB
gQDCnNYcA5cOUBlqlgYpkqGH/p8mgrjZJr54QfkOZnv6JSa2NMmCd+ZvpSHMxM/G
i/Ff0sTlJ7O5MgXwkeaREEkkRP3OKWmHCtN/5SAiFFc0dOqKKd+tD82H8s+j+489
z9JqAFlkmm/UOoFcAAXjjqvTKIhClLqUHtZFNKUIFuOYhw==
-----END CERTIFICATE-----
-----BEGIN PRIVATE KEY-----
MIICdwIBADANBgkqhkiG9w0BAQEFAASCAmEwggJdAgEAAoGBAMFXENqZS9B5rdE6
aNpcrQml6AfjsflF9CRQO3X/YaccdgtwvamYTAaTipWNtOUJ3I4+FFAd6xUeW0J8
AN8ihcddokzyKmH9jdAJkRmL296BBRQJZn9SL5f1PUhfNFqm71FgKhhDWMJAS8h5
nBzmUBI7FQVNW4gXE9hz95jeDmU1AgMBAAECgYEApnV4vEypupdYsMBSUFbkYF8o
E8rVi2HQHoe5ehFjmUZm19i8Ys0N/8d91N9JtLy12P3X7Vak9OzK88Xh1jtZ41oM
AE7ShFrszILLAj4WkB5uSM63jPq4tgvOFIfqAGchc+/nFVSIlVUaWE0DGaiMLltk
3HZGcd/azbSoVhgSqSECQQDl/MqPZf9qsf7uPCOcUt3RNG+zzKi4GspvWmgVmu6X
MmkkP620gwHaWuC4aIcWWoTekZB1OZE/h3OCgSJtVrs5AkEA1zUpoR2Fya7abE5K
iDXjdaBO6EMiFShis50yBqrIpI+lUiD0VIH7J1rJsgqlFLfU0izKl8abSeCs8E9m
drPt3QJAMOw+VpS26YZlmV33oUhLYTZLUK8HcOpaB6funjHv8P/LN+fH1q9LlJxi
UzgBDHNC8ml6lkUhrabtnmRD44hgmQJAaIquulF5GEwUVuCBXEGxSQaizjkuaVDB
AbevAYYdCbOt/4N6rUKnGqsDp7V8E+BpRd/0Wl5kOTMnT2WCxM8LEQJBALfgRcJE
qGJsF2V/Bgu91uPPFwcwPlMpjEKKk2acsisTp3TiAiXd5WYcg4C8qOeDOwHV4P1v
lsw8XyRUzro5Mho=
-----END PRIVATE KEY-----
