Certificate:
    Data:
        Version: 3 (0x2)
        Serial Number: 4101 (0x1005)
    Signature Algorithm: sha1WithRSAEncryption
        Issuer: C=US, ST=California, L=Palo Alto, O=MongoDB, OU=QA, CN=TEST-CA
        Validity
            Not Before: Oct  1 18:51:45 2014 GMT
            Not After : Oct  1 19:01:45 2014 GMT
        Subject: C=US, ST=California, O=MongoDB, OU=QAClient, CN=TEST-CLIENT-Expired-in10min
        Subject Public Key Info:
            Public Key Algorithm: rsaEncryption
                Public-Key: (1024 bit)
                Modulus:
                    00:ed:e0:7e:24:0a:3f:02:9d:4b:2f:1d:da:95:be:
                    ca:2f:d1:75:14:10:ae:ab:40:46:9b:26:ab:f7:c4:
                    e3:55:f4:fc:a2:04:f1:b1:e4:ab:54:07:24:66:59:
                    ad:1e:0a:b0:b8:87:4f:39:ed:5a:b0:d1:83:2d:55:
                    8d:a3:12:83:02:e9:34:cc:2c:16:e2:d6:2e:04:cb:
                    42:47:5d:01:4c:13:d3:2c:fa:ea:d1:77:b2:9a:ec:
                    5d:30:48:d6:06:a6:12:0f:db:dc:a8:a6:a4:e0:fb:
                    de:3c:e5:19:f8:f1:c8:58:0a:ac:c7:88:ac:8c:03:
                    78:04:9c:29:39:5e:bb:f4:b3
                Exponent: 65537 (0x10001)
        X509v3 extensions:
            X509v3 Basic Constraints: 
                CA:FALSE
            Netscape Comment: 
                OpenSSL Generated Certificate
            X509v3 Subject Key Identifier: 
                35:A9:80:25:53:2E:F7:71:C2:98:20:92:29:42:F7:0F:9E:B8:47:D6
            X509v3 Authority Key Identifier: 
                keyid:A4:2A:13:7D:63:F0:E3:06:CA:5E:F0:73:7A:1B:9A:48:4F:1F:8C:F0

    Signature Algorithm: sha1WithRSAEncryption
         de:5b:e7:57:49:b7:52:15:12:dc:59:05:4c:54:f1:3e:0c:6f:
         08:21:7c:4d:df:a8:30:b0:7c:f1:43:96:5b:d8:e0:14:0c:51:
         70:82:d6:a1:8d:e5:39:3c:97:4d:61:d4:de:b5:94:f2:5f:20:
         4d:7a:94:62:b4:44:3e:71:76:c6:87:03:1d:00:5b:65:5d:15:
         cd:1d:a0:85:a7:e9:19:fb:c0:bf:86:21:d2:9c:28:d5:ac:53:
         da:04:3c:1a:42:b5:37:61:f9:96:5c:b9:11:ce:a0:aa:88:75:
         7b:2c:53:c7:e8:d9:76:dc:2c:36:f8:bb:f3:4e:76:ff:64:ee:
         9a:b2
-----BEGIN CERTIFICATE-----
MIICxjCCAi+gAwIBAgICEAUwDQYJKoZIhvcNAQEFBQAwZzELMAkGA1UEBhMCVVMx
EzARBgNVBAgMCkNhbGlmb3JuaWExEjAQBgNVBAcMCVBhbG8gQWx0bzEQMA4GA1UE
CgwHTW9uZ29EQjELMAkGA1UECwwCUUExEDAOBgNVBAMMB1RFU1QtQ0EwHhcNMTQx
MDAxMTg1MTQ1WhcNMTQxMDAxMTkwMTQ1WjBtMQswCQYDVQQGEwJVUzETMBEGA1UE
CAwKQ2FsaWZvcm5pYTEQMA4GA1UECgwHTW9uZ29EQjERMA8GA1UECwwIUUFDbGll
bnQxJDAiBgNVBAMMG1RFU1QtQ0xJRU5ULUV4cGlyZWQtaW4xMG1pbjCBnzANBgkq
hkiG9w0BAQEFAAOBjQAwgYkCgYEA7eB+JAo/Ap1LLx3alb7KL9F1FBCuq0BGmyar
98TjVfT8ogTxseSrVAckZlmtHgqwuIdPOe1asNGDLVWNoxKDAuk0zCwW4tYuBMtC
R10BTBPTLPrq0XeymuxdMEjWBqYSD9vcqKak4PvePOUZ+PHIWAqsx4isjAN4BJwp
OV679LMCAwEAAaN7MHkwCQYDVR0TBAIwADAsBglghkgBhvhCAQ0EHxYdT3BlblNT
TCBHZW5lcmF0ZWQgQ2VydGlmaWNhdGUwHQYDVR0OBBYEFDWpgCVTLvdxwpggkilC
9w+euEfWMB8GA1UdIwQYMBaAFKQqE31j8OMGyl7wc3obmkhPH4zwMA0GCSqGSIb3
DQEBBQUAA4GBAN5b51dJt1IVEtxZBUxU8T4MbwghfE3fqDCwfPFDllvY4BQMUXCC
1qGN5Tk8l01h1N61lPJfIE16lGK0RD5xdsaHAx0AW2VdFc0doIWn6Rn7wL+GIdKc
KNWsU9oEPBpCtTdh+ZZcuRHOoKqIdXssU8fo2XbcLDb4u/NOdv9k7pqy
-----END CERTIFICATE-----
-----BEGIN PRIVATE KEY-----
MIICdwIBADANBgkqhkiG9w0BAQEFAASCAmEwggJdAgEAAoGBAO3gfiQKPwKdSy8d
2pW+yi/RdRQQrqtARpsmq/fE41X0/KIE8bHkq1QHJGZZrR4KsLiHTzntWrDRgy1V
jaMSgwLpNMwsFuLWLgTLQkddAUwT0yz66tF3sprsXTBI1gamEg/b3KimpOD73jzl
GfjxyFgKrMeIrIwDeAScKTleu/SzAgMBAAECgYEAkb+6KiTpBJYRyfW1x4iV44So
ArpR+3WvjUK9nVtSm4k2/aKf4Iqmex7BK8EIdF7Cdt3ZKjoHFk3Y3P8NgHxILmLk
RzjA2L+JLpbWYcryzUutgL2tf4I5YndOXRUS0/PTAyTSxFIfVa83HZe4fabiJoZo
ywvNR0VfCmQ1GuOO58ECQQD99Rog0ltsbgwhDF0lesHu5VVDFZIWVjZDj29vVhmM
knjUgt0g/nh7wnN6CNjb1wJT0MDw1aZ+6lkzBauL2HChAkEA78pH668dRLJ2F6Lo
yWa5sCq0dijYfBzByQnOXms4E0a93Jeb5JfXhc8wV5B4MJ5DGeqy41ir7pXYHnsj
H2Mg0wJAdCxXk4QnRmbhLY0WXzrU1JAcfN+1QHqXwDgxZeEhNukaVTy4I4vFWfgO
E1lQuuCUs/rfCEz0KULTI0AIxaRxgQJAJG1yZ5d+tsT1s7mH67CzXNPf/mNOH+yu
c8ANncJkDmmcxjox8JQwpZ9IFMVZvOkOAI3rByadV+1jm53RRB9nCQJBAOSsHm+H
NHswHCWd4QRdyPtYeuxnyPp/0zVpmBUuQpo7LUtkOLW+n4RDUbt0wicfwfqJZLFY
xs3Y8P2i16v0dxw=
-----END PRIVATE KEY-----
