Certificate:
    Data:
        Version: 3 (0x2)
        Serial Number: 4097 (0x1001)
    Signature Algorithm: sha1WithRSAEncryption
        Issuer: C=US, ST=California, L=Palo Alto, O=MongoDB, OU=QA, CN=TEST-CA
        Validity
            Not Before: Oct  1 18:51:45 2014 GMT
            Not After : Oct  1 18:51:45 2015 GMT
        Subject: C=US, ST=California, O=MongoDB, OU=QAClient, CN=TEST-CLIENT
        Subject Public Key Info:
            Public Key Algorithm: rsaEncryption
                Public-Key: (1024 bit)
                Modulus:
                    00:cc:01:b3:6e:01:fe:02:48:0a:19:c0:93:1c:ef:
                    1e:db:a0:94:8c:fd:63:68:a1:b9:92:c4:7b:b3:10:
                    5a:8a:06:6b:f3:d2:4d:54:ce:52:bd:08:b3:ad:e5:
                    6d:bf:91:7c:a8:fc:be:f9:1b:38:d1:e1:0d:6f:51:
                    59:11:77:bb:1c:68:5c:d8:2e:87:99:00:f8:8f:2a:
                    48:2d:88:85:fd:ba:4e:ea:32:28:60:18:62:c4:d3:
                    01:da:44:d0:d6:18:b4:62:4c:01:7c:4b:1b:94:0a:
                    da:13:fe:81:db:fb:a7:32:39:a8:30:28:d8:45:5f:
                    53:41:bc:56:12:80:62:e0:3d
                Exponent: 65537 (0x10001)
        X509v3 extensions:
            X509v3 Basic Constraints: 
                CA:FALSE
            Netscape Comment: 
                OpenSSL Generated Certificate
            X509v3 Subject Key Identifier: 
                39:80:94:27:39:48:32:AE:C4:E9:AD:23:07:21:C0:40:C2:F1:9A:B5
            X509v3 Authority Key Identifier: 
                keyid:A4:2A:13:7D:63:F0:E3:06:CA:5E:F0:73:7A:1B:9A:48:4F:1F:8C:F0

    Signature Algorithm: sha1WithRSAEncryption
         82:66:69:c2:d7:8b:99:5e:3e:b0:78:56:f9:8f:33:94:99:ab:
         df:ec:42:e0:2a:0b:7f:7a:26:2b:ab:d7:0e:6f:7b:a9:a3:e7:
         40:e7:d6:c9:d2:52:3e:0a:81:63:a4:49:63:bb:38:06:7f:35:
         a2:89:bd:fb:1a:f8:ef:c0:b8:df:92:d0:f6:fe:66:dc:0d:82:
         bd:39:f5:86:f0:a9:04:38:42:e8:9c:f4:5b:bd:fb:0f:b4:32:
         28:0d:0f:20:54:8b:5c:07:14:5a:ba:3d:ec:0b:95:f3:c9:5b:
         e3:da:16:12:e3:d1:ec:e5:75:2d:77:74:5e:08:ae:4d:a3:52:
         5c:cc
-----BEGIN CERTIFICATE-----
MIICtjCCAh+gAwIBAgICEAEwDQYJKoZIhvcNAQEFBQAwZzELMAkGA1UEBhMCVVMx
EzARBgNVBAgMCkNhbGlmb3JuaWExEjAQBgNVBAcMCVBhbG8gQWx0bzEQMA4GA1UE
CgwHTW9uZ29EQjELMAkGA1UECwwCUUExEDAOBgNVBAMMB1RFU1QtQ0EwHhcNMTQx
MDAxMTg1MTQ1WhcNMTUxMDAxMTg1MTQ1WjBdMQswCQYDVQQGEwJVUzETMBEGA1UE
CAwKQ2FsaWZvcm5pYTEQMA4GA1UECgwHTW9uZ29EQjERMA8GA1UECwwIUUFDbGll
bnQxFDASBgNVBAMMC1RFU1QtQ0xJRU5UMIGfMA0GCSqGSIb3DQEBAQUAA4GNADCB
iQKBgQDMAbNuAf4CSAoZwJMc7x7boJSM/WNoobmSxHuzEFqKBmvz0k1UzlK9CLOt
5W2/kXyo/L75GzjR4Q1vUVkRd7scaFzYLoeZAPiPKkgtiIX9uk7qMihgGGLE0wHa
RNDWGLRiTAF8SxuUCtoT/oHb+6cyOagwKNhFX1NBvFYSgGLgPQIDAQABo3sweTAJ
BgNVHRMEAjAAMCwGCWCGSAGG+EIBDQQfFh1PcGVuU1NMIEdlbmVyYXRlZCBDZXJ0
aWZpY2F0ZTAdBgNVHQ4EFgQUOYCUJzlIMq7E6a0jByHAQMLxmrUwHwYDVR0jBBgw
FoAUpCoTfWPw4wbKXvBzehuaSE8fjPAwDQYJKoZIhvcNAQEFBQADgYEAgmZpwteL
mV4+sHhW+Y8zlJmr3+xC4CoLf3omK6vXDm97qaPnQOfWydJSPgqBY6RJY7s4Bn81
oom9+xr478C435LQ9v5m3A2CvTn1hvCpBDhC6Jz0W737D7QyKA0PIFSLXAcUWro9
7AuV88lb49oWEuPR7OV1LXd0XgiuTaNSXMw=
-----END CERTIFICATE-----
-----BEGIN PRIVATE KEY-----
MIICdgIBADANBgkqhkiG9w0BAQEFAASCAmAwggJcAgEAAoGBAKBa/bA0rEh4RWJ5
mQzIFDYO0sl2sxVEt0tpc7cjgD4CdLayS+ahQFfLyFZjTakvvteI7o1NOvbm4bCK
ayyM/tLidwUsCUgfWhK56gjv/vnz1Vd3iJPHQFNaqM4PqPWKtiGI+PvRyws4zvlk
R7SsKZnCS6a2Wh0xc67qJ0/lGC7BAgMBAAECgYAoQc+wnfimlPMuXsKqr8xLKfuH
MnKRI1g06XtwfcwjRTCR8T8W3mKt5+4aqgGEOQVbTPg+pyXneF0umgGABMGwP+5A
EyHnQNsjEM6P92Jyvr6a1ybRY66nzejpGAJvj1qf5i5cnMZUzIA6mHxF32EDBsBw
3XawCTYKHfcPGWZeJQJBANQJqvnxFMg9E7K1rPwg+CHImZlpqnXwlReWBq4J/aVL
j5Tl/us/qXIeAZ9u0VWQOZX5fERIySxz+CNirbQ9zQMCQQDBmi3YYQNL342VvC5t
KZPT3WKVgo+36PMjzaHqVXTfhDFRCbe4lSjwo6HCt7WtOHMM6igc9t6MDc5Fa2Io
Df/rAkAnRWsfQ6FfvMArNy7Eu655Q1f/a+ygT2Ctr6GpFjyeIrKDF13xYCcX9arD
RpkKyd2Ag2aalwh7bTcmBp65ZUDVAkBtpyS2PGRAkhLAL0BgZb8rrWVL5xH9iTxF
GA/QCKzUeCvyiT18l0cD3Loe7ixBOwq20tz7YruzuZIN8X87zooXAkEAmUsupLS3
ALWYhuLwy5Q3uPDWtnVVpFhcpFZoaF3ajS9YfX685+w8U6xc7s7ha790srps7Z7t
RrjJjFQ37Mu9YQ==
-----END PRIVATE KEY-----
