Certificate:
    Data:
        Version: 3 (0x2)
        Serial Number: 4102 (0x1006)
    Signature Algorithm: sha1WithRSAEncryption
        Issuer: C=US, ST=California, L=Palo Alto, O=MongoDB, OU=QA, CN=TEST-CA
        Validity
            Not Before: Oct  1 18:51:45 2014 GMT
            Not After : Oct  1 18:51:45 2015 GMT
        Subject: C=US, ST=California, O=MongoDB, OU=QAClient, CN=TEST-CLIENT-2
        Subject Public Key Info:
            Public Key Algorithm: rsaEncryption
                Public-Key: (1024 bit)
                Modulus:
                    00:b6:49:ae:ef:ac:16:3d:8b:de:a0:72:65:3c:2e:
                    ef:47:4d:c0:d9:9e:f3:99:a4:31:d6:ec:3b:ef:01:
                    7b:67:2a:75:fd:53:e8:10:2c:01:d4:e3:08:05:db:
                    19:1c:db:0c:3d:ed:de:a6:6b:83:9a:c5:a3:d1:c9:
                    b6:ff:0e:39:8f:23:40:73:43:5e:47:cc:05:e8:fa:
                    0c:6f:b1:e0:0d:96:4a:5f:98:62:46:5e:5c:72:f1:
                    87:0e:be:51:24:1d:07:f0:bd:f3:e6:b6:a9:84:41:
                    62:cb:27:64:e2:6e:c3:40:dc:74:02:d3:0c:bb:9e:
                    ba:52:1a:f7:6b:0a:d1:da:c5
                Exponent: 65537 (0x10001)
        X509v3 extensions:
            X509v3 Basic Constraints: 
                CA:FALSE
            Netscape Comment: 
                OpenSSL Generated Certificate
            X509v3 Subject Key Identifier: 
                05:E8:8F:39:1D:C6:81:FF:3C:0A:AA:47:7A:52:CF:8D:E7:D4:50:0E
            X509v3 Authority Key Identifier: 
                keyid:A4:2A:13:7D:63:F0:E3:06:CA:5E:F0:73:7A:1B:9A:48:4F:1F:8C:F0

    Signature Algorithm: sha1WithRSAEncryption
         af:1f:9f:a5:9d:9e:8c:4a:e4:c7:aa:f7:92:ff:c7:74:6e:32:
         4f:fe:7f:f0:f3:d4:1d:f7:0b:64:6c:44:0c:e7:e8:49:5e:ad:
         fb:4f:26:1b:be:0a:31:67:5f:b2:af:6a:6e:b0:e4:fc:38:cf:
         b7:83:0a:91:5d:50:b5:30:6a:91:9d:dc:6e:71:19:69:e2:57:
         d2:d4:e4:07:0e:1f:ec:b5:5a:62:1e:a7:d2:7b:38:2a:4a:2f:
         c0:37:43:25:28:6f:ac:77:b3:fe:16:a5:ac:67:53:dc:1c:31:
         40:10:ca:06:92:cf:be:e3:a6:31:2a:c6:86:99:c7:84:a8:24:
         8f:86
-----BEGIN CERTIFICATE-----
MIICuDCCAiGgAwIBAgICEAYwDQYJKoZIhvcNAQEFBQAwZzELMAkGA1UEBhMCVVMx
EzARBgNVBAgMCkNhbGlmb3JuaWExEjAQBgNVBAcMCVBhbG8gQWx0bzEQMA4GA1UE
CgwHTW9uZ29EQjELMAkGA1UECwwCUUExEDAOBgNVBAMMB1RFU1QtQ0EwHhcNMTQx
MDAxMTg1MTQ1WhcNMTUxMDAxMTg1MTQ1WjBfMQswCQYDVQQGEwJVUzETMBEGA1UE
CAwKQ2FsaWZvcm5pYTEQMA4GA1UECgwHTW9uZ29EQjERMA8GA1UECwwIUUFDbGll
bnQxFjAUBgNVBAMMDVRFU1QtQ0xJRU5ULTIwgZ8wDQYJKoZIhvcNAQEBBQADgY0A
MIGJAoGBALZJru+sFj2L3qByZTwu70dNwNme85mkMdbsO+8Be2cqdf1T6BAsAdTj
CAXbGRzbDD3t3qZrg5rFo9HJtv8OOY8jQHNDXkfMBej6DG+x4A2WSl+YYkZeXHLx
hw6+USQdB/C98+a2qYRBYssnZOJuw0DcdALTDLueulIa92sK0drFAgMBAAGjezB5
MAkGA1UdEwQCMAAwLAYJYIZIAYb4QgENBB8WHU9wZW5TU0wgR2VuZXJhdGVkIENl
cnRpZmljYXRlMB0GA1UdDgQWBBQF6I85HcaB/zwKqkd6Us+N59RQDjAfBgNVHSME
GDAWgBSkKhN9Y/DjBspe8HN6G5pITx+M8DANBgkqhkiG9w0BAQUFAAOBgQCvH5+l
nZ6MSuTHqveS/8d0bjJP/n/w89Qd9wtkbEQM5+hJXq37TyYbvgoxZ1+yr2pusOT8
OM+3gwqRXVC1MGqRndxucRlp4lfS1OQHDh/stVpiHqfSezgqSi/AN0MlKG+sd7P+
FqWsZ1PcHDFAEMoGks++46YxKsaGmceEqCSPhg==
-----END CERTIFICATE-----
-----BEGIN PRIVATE KEY-----
MIICdwIBADANBgkqhkiG9w0BAQEFAASCAmEwggJdAgEAAoGBALZJru+sFj2L3qBy
ZTwu70dNwNme85mkMdbsO+8Be2cqdf1T6BAsAdTjCAXbGRzbDD3t3qZrg5rFo9HJ
tv8OOY8jQHNDXkfMBej6DG+x4A2WSl+YYkZeXHLxhw6+USQdB/C98+a2qYRBYssn
ZOJuw0DcdALTDLueulIa92sK0drFAgMBAAECgYEArXzBDn/Ehvzoe+GD8dxlhII+
qZ97Dl3TxU392IGblds2gkxqD4IimB8e0pvscacUJpiOD+tBTHsPZ6lIDcTXB4O6
x3MVsLAfEUveS2MYkj4N6d9IcK96TdjM+f1fnGEv6DRkIWY6Yt1ovN8xJnavffXI
guL+1RTtLdJZXvSI3aECQQDs/w7sYs26oFKcKOmadzZqQkXLV2ZrCsLk6/nIPmFG
PPaKTUtJYiPPByrNF4tjJhsoAv6U7ouXHSwdKTH6mSwZAkEAxOeYsf7Y8MfX80SV
CbBbdNeNBGV8iAgcqXZKm4yyrEEbWvs4DiMRwlc//+InCZ6MXqNoKz9QPMv8+HHK
uxs5jQJBAMGDzqK0VrpBuNKsEXtARl1jeev8lLNo2RTlnlKkpPceRk1NqeDk0sp0
Vr2asQUnk1sLfucLFU4x0tiIz7eJJNkCQHqwH6mQtJXav4jZi8+8rk+wWzKJFb4g
59MDXNttIItKCgR3keblHRStjrgertpEiwwQ30BLM/Cd3eLj7EEHZqUCQCms6+xF
aPfOB1RWYAxLm5Fi6Eak6dGjCsBrLV6dmttXE1STetr90tdpIQP6lP3+u8WWBk1g
aT/S0XAlBRMWLzE=
-----END PRIVATE KEY-----
