Certificate:
    Data:
        Version: 3 (0x2)
        Serial Number: 4096 (0x1000)
    Signature Algorithm: sha1WithRSAEncryption
        Issuer: C=US, ST=California, L=Palo Alto, O=MongoDB, OU=QA, CN=TEST-CA
        Validity
            Not Before: Oct  1 18:51:45 2014 GMT
            Not After : Oct  1 18:51:45 2015 GMT
        Subject: C=US, ST=California, O=MongoDB, OU=QA, CN=TEST-SERVER
        Subject Public Key Info:
            Public Key Algorithm: rsaEncryption
                Public-Key: (1024 bit)
                Modulus:
                    00:bc:3c:46:03:cc:d7:4f:7f:62:2f:78:98:62:e1:
                    60:d5:16:93:09:eb:eb:5c:88:b9:c3:43:0c:b4:03:
                    ca:49:fe:c0:79:32:6d:6a:19:54:36:59:26:22:60:
                    2c:08:aa:99:9e:92:20:85:2c:51:e3:26:5d:4a:64:
                    9e:41:5f:c0:ba:2a:b4:1f:88:46:9a:36:43:0f:31:
                    11:a2:40:cf:89:97:d8:05:5a:a2:f6:17:24:b4:64:
                    e3:75:eb:bb:27:e9:fe:db:c6:21:7a:3f:df:c8:4d:
                    30:1f:87:47:07:b9:43:43:05:cf:bd:13:b6:30:4d:
                    e2:31:66:62:13:40:71:a0:73
                Exponent: 65537 (0x10001)
        X509v3 extensions:
            X509v3 Basic Constraints: 
                CA:FALSE
            Netscape Comment: 
                OpenSSL Generated Certificate
            X509v3 Subject Key Identifier: 
                8A:DF:62:85:CA:04:15:27:16:CD:33:F0:20:B0:71:C0:6C:04:03:A6
            X509v3 Authority Key Identifier: 
                keyid:A4:2A:13:7D:63:F0:E3:06:CA:5E:F0:73:7A:1B:9A:48:4F:1F:8C:F0

    Signature Algorithm: sha1WithRSAEncryption
         d9:55:c9:ee:08:ec:34:a1:1b:7b:e3:9f:b1:13:34:2a:e8:ab:
         21:5c:9e:2f:40:58:2f:3b:2f:1d:ed:2d:64:c5:3b:25:6b:ef:
         be:dc:59:2a:79:7f:97:8a:66:29:f4:d9:fc:8e:e0:c3:0b:eb:
         b0:16:55:ec:a2:4e:9d:5a:6e:30:39:8e:c1:94:4b:74:f5:91:
         e7:01:50:d6:34:37:ab:ce:b3:67:a5:f1:76:43:49:67:ac:cf:
         8e:ef:06:80:d5:43:d7:94:42:97:f8:3a:70:1a:7f:9d:df:55:
         5c:4c:01:7b:a6:4b:c8:7e:7f:91:8a:c0:83:16:39:5c:8c:24:
         b9:b9
-----BEGIN CERTIFICATE-----
MIICsDCCAhmgAwIBAgICEAAwDQYJKoZIhvcNAQEFBQAwZzELMAkGA1UEBhMCVVMx
EzARBgNVBAgMCkNhbGlmb3JuaWExEjAQBgNVBAcMCVBhbG8gQWx0bzEQMA4GA1UE
CgwHTW9uZ29EQjELMAkGA1UECwwCUUExEDAOBgNVBAMMB1RFU1QtQ0EwHhcNMTQx
MDAxMTg1MTQ1WhcNMTUxMDAxMTg1MTQ1WjBXMQswCQYDVQQGEwJVUzETMBEGA1UE
CAwKQ2FsaWZvcm5pYTEQMA4GA1UECgwHTW9uZ29EQjELMAkGA1UECwwCUUExFDAS
BgNVBAMMC1RFU1QtU0VSVkVSMIGfMA0GCSqGSIb3DQEBAQUAA4GNADCBiQKBgQC8
PEYDzNdPf2IveJhi4WDVFpMJ6+tciLnDQwy0A8pJ/sB5Mm1qGVQ2WSYiYCwIqpme
kiCFLFHjJl1KZJ5BX8C6KrQfiEaaNkMPMRGiQM+Jl9gFWqL2FyS0ZON167sn6f7b
xiF6P9/ITTAfh0cHuUNDBc+9E7YwTeIxZmITQHGgcwIDAQABo3sweTAJBgNVHRME
AjAAMCwGCWCGSAGG+EIBDQQfFh1PcGVuU1NMIEdlbmVyYXRlZCBDZXJ0aWZpY2F0
ZTAdBgNVHQ4EFgQUit9ihcoEFScWzTPwILBxwGwEA6YwHwYDVR0jBBgwFoAUpCoT
fWPw4wbKXvBzehuaSE8fjPAwDQYJKoZIhvcNAQEFBQADgYEA2VXJ7gjsNKEbe+Of
sRM0KuirIVyeL0BYLzsvHe0tZMU7JWvvvtxZKnl/l4pmKfTZ/I7gwwvrsBZV7KJO
nVpuMDmOwZRLdPWR5wFQ1jQ3q86zZ6XxdkNJZ6zPju8GgNVD15RCl/g6cBp/nd9V
XEwBe6ZLyH5/kYrAgxY5XIwkubk=
-----END CERTIFICATE-----
-----BEGIN PRIVATE KEY-----
MIICeAIBADANBgkqhkiG9w0BAQEFAASCAmIwggJeAgEAAoGBALw8RgPM109/Yi94
mGLhYNUWkwnr61yIucNDDLQDykn+wHkybWoZVDZZJiJgLAiqmZ6SIIUsUeMmXUpk
nkFfwLoqtB+IRpo2Qw8xEaJAz4mX2AVaovYXJLRk43Xruyfp/tvGIXo/38hNMB+H
Rwe5Q0MFz70TtjBN4jFmYhNAcaBzAgMBAAECgYAwIGj2R8U0+iisYnTzsxQC50ao
3rzKZ9q25cm1rNJnoM6tLgtzeQ5i5uAtIdGgVZ35QPs3kWFOZlyrzJX5uPWZMxWO
dqyl5etA55IgVViDU8WttBzrglxyxHSd6+MBWDyJTX3IpC5Xsz9J0psk92o0twBo
GObl1ICI7y1mwSAToQJBAOsmZjaYw+KVLCSvQU8R7ZWrUdpxJWzKLtuq4wfRGqbQ
qnZkv/CuXytaZ32grpdSq4eFTI9N5N+oPU3qtMYE048CQQDM7Pl7zJFp97qMfaLk
hwaVj/yAtFtm0zOSB9SzYHgJlXL58wYuVH2z6LVhg8PbXhpwVwreA3p/Dqn4eAMD
8iLdAkEAtCCUB5p54uVWDTvakVEwZ4f2iZhGjNFLl6WNh31cJxCMo2iFxz4rVLBJ
umgNlYkUMBmiDdwjSFg9raPumgk0bQJBAKwD75e/rABrdigf/fAed6Rr7OSMgHzb
pFpcQGsh+yDwVkcBfJq/SZUPLdHhLTKi10adif26pcSppntvIfjZ8/ECQQDfMx3D
ZrDxrfT/LRupm7stk8KM0b6J2JOenenIZDNNmPky07fIhaVNElHLjRuHb9/fDIdq
6tbpmqJ51rQK70IC
-----END PRIVATE KEY-----
